target datalayout = "e-m:e-p270:32:32-p271:32:32-p272:64:64-i64:64-i128:128-f80:128-n8:16:32:64-S128"
target triple = "x86_64-pc-linux-gnu"

%"class.llvm::SmallVectorBase" = type { ptr, i32, i32 }
%"struct.llvm::MBBSectionID" = type { i32, i32 }
%"class.std::optional" = type { %"struct.std::_Optional_base" }
%"struct.std::_Optional_base" = type { %"struct.std::_Optional_payload" }
%"struct.std::_Optional_payload" = type { %"struct.std::_Optional_payload_base.base", [7 x i8] }
%"struct.std::_Optional_payload_base.base" = type <{ %"union.std::_Optional_payload_base<unsigned long>::_Storage", i8 }>
%"union.std::_Optional_payload_base<unsigned long>::_Storage" = type { i64 }
%"class.llvm::MachineBasicBlock" = type { %"class.llvm::ilist_node_with_parent", ptr, i32, i32, ptr, %"class.llvm::iplist", %"class.llvm::SmallVector.4", %"class.llvm::SmallVector.9", %"class.std::vector", %"class.std::optional", %"class.std::vector.11", %"struct.llvm::Align", i32, i8, i8, ptr, i8, i8, i8, i8, i8, [3 x i8], %"class.std::optional.16", %"struct.llvm::MBBSectionID", i8, i8, i8, ptr, ptr, ptr }
%"class.llvm::ilist_node_with_parent" = type { %"class.llvm::ilist_node" }
%"class.llvm::ilist_node" = type { %"class.llvm::ilist_node_impl" }
%"class.llvm::ilist_node_impl" = type { %"class.llvm::ilist_node_base" }
%"class.llvm::ilist_node_base" = type { %"class.llvm::ilist_detail::node_base_prevnext" }
%"class.llvm::ilist_detail::node_base_prevnext" = type { ptr, ptr }
%"class.llvm::iplist" = type { %"class.llvm::iplist_impl" }
%"class.llvm::iplist_impl" = type { %"struct.llvm::ilist_traits", %"class.llvm::simple_ilist" }
%"struct.llvm::ilist_traits" = type { ptr }
%"class.llvm::simple_ilist" = type { %"class.llvm::ilist_sentinel" }
%"class.llvm::ilist_sentinel" = type { %"class.llvm::ilist_node_impl.0" }
%"class.llvm::ilist_node_impl.0" = type { %"class.llvm::ilist_node_base.1" }
%"class.llvm::ilist_node_base.1" = type { %"class.llvm::ilist_detail::node_base_prevnext.2" }
%"class.llvm::ilist_detail::node_base_prevnext.2" = type { %"class.llvm::PointerIntPair", ptr }
%"class.llvm::PointerIntPair" = type { %"struct.llvm::detail::PunnedPointer" }
%"struct.llvm::detail::PunnedPointer" = type { [8 x i8] }
%"class.llvm::SmallVector.4" = type { %"class.llvm::SmallVectorImpl.5", %"struct.llvm::SmallVectorStorage.8" }
%"class.llvm::SmallVectorImpl.5" = type { %"class.llvm::SmallVectorTemplateBase.6" }
%"class.llvm::SmallVectorTemplateBase.6" = type { %"class.llvm::SmallVectorTemplateCommon.7" }
%"class.llvm::SmallVectorTemplateCommon.7" = type { %"class.llvm::SmallVectorBase" }
%"struct.llvm::SmallVectorStorage.8" = type { [32 x i8] }
%"class.llvm::SmallVector.9" = type { %"class.llvm::SmallVectorImpl.5", %"struct.llvm::SmallVectorStorage.10" }
%"struct.llvm::SmallVectorStorage.10" = type { [16 x i8] }
%"class.std::vector" = type { %"struct.std::_Vector_base" }
%"struct.std::_Vector_base" = type { %"struct.std::_Vector_base<llvm::BranchProbability, std::allocator<llvm::BranchProbability>>::_Vector_impl" }
%"struct.std::_Vector_base<llvm::BranchProbability, std::allocator<llvm::BranchProbability>>::_Vector_impl" = type { %"struct.std::_Vector_base<llvm::BranchProbability, std::allocator<llvm::BranchProbability>>::_Vector_impl_data" }
%"struct.std::_Vector_base<llvm::BranchProbability, std::allocator<llvm::BranchProbability>>::_Vector_impl_data" = type { ptr, ptr, ptr }
%"class.std::vector.11" = type { %"struct.std::_Vector_base.12" }
%"struct.std::_Vector_base.12" = type { %"struct.std::_Vector_base<llvm::MachineBasicBlock::RegisterMaskPair, std::allocator<llvm::MachineBasicBlock::RegisterMaskPair>>::_Vector_impl" }
%"struct.std::_Vector_base<llvm::MachineBasicBlock::RegisterMaskPair, std::allocator<llvm::MachineBasicBlock::RegisterMaskPair>>::_Vector_impl" = type { %"struct.std::_Vector_base<llvm::MachineBasicBlock::RegisterMaskPair, std::allocator<llvm::MachineBasicBlock::RegisterMaskPair>>::_Vector_impl_data" }
%"struct.std::_Vector_base<llvm::MachineBasicBlock::RegisterMaskPair, std::allocator<llvm::MachineBasicBlock::RegisterMaskPair>>::_Vector_impl_data" = type { ptr, ptr, ptr }
%"struct.llvm::Align" = type { i8 }
%"class.std::optional.16" = type { %"struct.std::_Optional_base.17" }
%"struct.std::_Optional_base.17" = type { %"struct.std::_Optional_payload.19" }
%"struct.std::_Optional_payload.19" = type { %"struct.std::_Optional_payload_base.base.21", [3 x i8] }
%"struct.std::_Optional_payload_base.base.21" = type <{ %"union.std::_Optional_payload_base<llvm::UniqueBBID>::_Storage", i8 }>
%"union.std::_Optional_payload_base<llvm::UniqueBBID>::_Storage" = type { %"struct.llvm::UniqueBBID" }
%"struct.llvm::UniqueBBID" = type { i32, i32 }

; Function Attrs: mustprogress nounwind uwtable
define linkonce_odr hidden void @_ZNSt12_Destroy_auxILb1EE9__destroyIPN4llvm17MachineBasicBlock16RegisterMaskPairEEEvT_S6_(ptr noundef %0, ptr noundef %1) #1 comdat align 2 {
  %3 = alloca ptr, align 8
  %4 = alloca ptr, align 8
  store ptr %0, ptr %3, align 8
  store ptr %1, ptr %4, align 8
  ret void
}

; Function Attrs: mustprogress nounwind uwtable
define linkonce_odr void @_ZSt8_DestroyIPN4llvm17MachineBasicBlock16RegisterMaskPairEEvT_S4_(ptr noundef %0, ptr noundef %1) #1 comdat {
  %3 = alloca ptr, align 8
  %4 = alloca ptr, align 8
  store ptr %0, ptr %3, align 8
  store ptr %1, ptr %4, align 8
  %5 = load ptr, ptr %3, align 8
  %6 = load ptr, ptr %4, align 8
  call void @_ZNSt12_Destroy_auxILb1EE9__destroyIPN4llvm17MachineBasicBlock16RegisterMaskPairEEEvT_S6_(ptr noundef %5, ptr noundef %6)
  ret void
}

; Function Attrs: mustprogress nounwind uwtable
define linkonce_odr void @_ZSt8_DestroyIPN4llvm17MachineBasicBlock16RegisterMaskPairES2_EvT_S4_RSaIT0_E(ptr noundef %0, ptr noundef %1, ptr noundef nonnull align 1 dereferenceable(1) %2) #1 comdat {
  %4 = alloca ptr, align 8
  %5 = alloca ptr, align 8
  %6 = alloca ptr, align 8
  store ptr %0, ptr %4, align 8
  store ptr %1, ptr %5, align 8
  store ptr %2, ptr %6, align 8
  %7 = load ptr, ptr %4, align 8
  %8 = load ptr, ptr %5, align 8
  call void @_ZSt8_DestroyIPN4llvm17MachineBasicBlock16RegisterMaskPairEEvT_S4_(ptr noundef %7, ptr noundef %8)
  ret void
}

; Function Attrs: mustprogress nounwind uwtable
define linkonce_odr hidden noundef nonnull align 1 dereferenceable(1) ptr @_ZNSt12_Vector_baseIN4llvm17MachineBasicBlock16RegisterMaskPairESaIS2_EE19_M_get_Tp_allocatorEv(ptr noundef nonnull align 8 dereferenceable(24) %0) #1 comdat align 2 {
  %2 = alloca ptr, align 8
  store ptr %0, ptr %2, align 8
  %3 = load ptr, ptr %2, align 8
  %4 = getelementptr inbounds nuw %"struct.std::_Vector_base.12", ptr %3, i32 0, i32 0
  ret ptr %4
}

; Function Attrs: mustprogress nounwind uwtable
define linkonce_odr hidden void @_ZNSt6vectorIN4llvm17MachineBasicBlock16RegisterMaskPairESaIS2_EE15_M_erase_at_endEPS2_(ptr noundef nonnull align 8 dereferenceable(24) %0, ptr noundef %1) #1 comdat align 2 {
  %3 = alloca ptr, align 8
  %4 = alloca ptr, align 8
  %5 = alloca i64, align 8
  store ptr %0, ptr %3, align 8
  store ptr %1, ptr %4, align 8
  %6 = load ptr, ptr %3, align 8
  %7 = getelementptr inbounds nuw %"struct.std::_Vector_base.12", ptr %6, i32 0, i32 0
  %8 = getelementptr inbounds nuw %"struct.std::_Vector_base<llvm::MachineBasicBlock::RegisterMaskPair, std::allocator<llvm::MachineBasicBlock::RegisterMaskPair>>::_Vector_impl_data", ptr %7, i32 0, i32 1
  %9 = load ptr, ptr %8, align 8
  %10 = load ptr, ptr %4, align 8
  %11 = ptrtoint ptr %9 to i64
  %12 = ptrtoint ptr %10 to i64
  %13 = sub i64 %11, %12
  %14 = sdiv exact i64 %13, 16
  store i64 %14, ptr %5, align 8
  %15 = load i64, ptr %5, align 8
  %16 = icmp ne i64 %15, 0
  br i1 %16, label %17, label %26

17:                                               ; preds = %2
  %18 = load ptr, ptr %4, align 8
  %19 = getelementptr inbounds nuw %"struct.std::_Vector_base.12", ptr %6, i32 0, i32 0
  %20 = getelementptr inbounds nuw %"struct.std::_Vector_base<llvm::MachineBasicBlock::RegisterMaskPair, std::allocator<llvm::MachineBasicBlock::RegisterMaskPair>>::_Vector_impl_data", ptr %19, i32 0, i32 1
  %21 = load ptr, ptr %20, align 8
  %22 = call noundef nonnull align 1 dereferenceable(1) ptr @_ZNSt12_Vector_baseIN4llvm17MachineBasicBlock16RegisterMaskPairESaIS2_EE19_M_get_Tp_allocatorEv(ptr noundef nonnull align 8 dereferenceable(24) %6) #2
  call void @_ZSt8_DestroyIPN4llvm17MachineBasicBlock16RegisterMaskPairES2_EvT_S4_RSaIT0_E(ptr noundef %18, ptr noundef %21, ptr noundef nonnull align 1 dereferenceable(1) %22)
  %23 = load ptr, ptr %4, align 8
  %24 = getelementptr inbounds nuw %"struct.std::_Vector_base.12", ptr %6, i32 0, i32 0
  %25 = getelementptr inbounds nuw %"struct.std::_Vector_base<llvm::MachineBasicBlock::RegisterMaskPair, std::allocator<llvm::MachineBasicBlock::RegisterMaskPair>>::_Vector_impl_data", ptr %24, i32 0, i32 1
  store ptr %23, ptr %25, align 8
  br label %26

26:                                               ; preds = %17, %2
  ret void
}

; Function Attrs: mustprogress nounwind uwtable
define linkonce_odr hidden void @_ZNSt6vectorIN4llvm17MachineBasicBlock16RegisterMaskPairESaIS2_EE5clearEv(ptr noundef nonnull align 8 dereferenceable(24) %0) #1 comdat align 2 {
  %2 = alloca ptr, align 8
  store ptr %0, ptr %2, align 8
  %3 = load ptr, ptr %2, align 8
  %4 = getelementptr inbounds nuw %"struct.std::_Vector_base.12", ptr %3, i32 0, i32 0
  %5 = getelementptr inbounds nuw %"struct.std::_Vector_base<llvm::MachineBasicBlock::RegisterMaskPair, std::allocator<llvm::MachineBasicBlock::RegisterMaskPair>>::_Vector_impl_data", ptr %4, i32 0, i32 0
  %6 = load ptr, ptr %5, align 8
  call void @_ZNSt6vectorIN4llvm17MachineBasicBlock16RegisterMaskPairESaIS2_EE15_M_erase_at_endEPS2_(ptr noundef nonnull align 8 dereferenceable(24) %3, ptr noundef %6) #2
  ret void
}

; Function Attrs: mustprogress nounwind uwtable
define dso_local void @_ZN4llvm17MachineBasicBlock12clearLiveInsEv(ptr noundef nonnull align 8 dereferenceable(288) %0) #1 align 2 {
  %2 = alloca ptr, align 8
  store ptr %0, ptr %2, align 8
  %3 = load ptr, ptr %2, align 8
  %4 = getelementptr inbounds nuw %"class.llvm::MachineBasicBlock", ptr %3, i32 0, i32 10
  call void @_ZNSt6vectorIN4llvm17MachineBasicBlock16RegisterMaskPairESaIS2_EE5clearEv(ptr noundef nonnull align 8 dereferenceable(24) %4) #2
  ret void
}