; Function Attrs: mustprogress nofree norecurse nosync nounwind willreturn memory(argmem: readwrite) uwtable
define dso_local void @_ZN4llvm17MachineBasicBlock12clearLiveInsEv(ptr noundef nonnull align 8 captures(none) dereferenceable(288) %0) local_unnamed_addr #15 align 2 {
  %2 = getelementptr inbounds nuw i8, ptr %0, i64 184
  %3 = load ptr, ptr %2, align 8
  %4 = getelementptr inbounds nuw i8, ptr %0, i64 192
  %5 = load ptr, ptr %4, align 8
  %.not.i.i = icmp eq ptr %5, %3
  br i1 %.not.i.i, label %_ZNSt6vectorIN4llvm17MachineBasicBlock16RegisterMaskPairESaIS2_EE5clearEv.exit, label %6

6:                                                ; preds = %1
  store ptr %3, ptr %4, align 8
  br label %_ZNSt6vectorIN4llvm17MachineBasicBlock16RegisterMaskPairESaIS2_EE5clearEv.exit

_ZNSt6vectorIN4llvm17MachineBasicBlock16RegisterMaskPairESaIS2_EE5clearEv.exit: ; preds = %1, %6
  ret void
}